target datalayout = "e-m:e-p270:32:32-p271:32:32-p272:64:64-i64:64-i128:128-f80:128-n8:16:32:64-S128"
target triple = "x86_64-pc-linux-gnu"

%class.XMMRegister = type { i32 }
%"class.XMMRegister::XMMRegisterImpl" = type { i8 }
%class.AbstractRegSet.2 = type { i64 }

@_ZL4xmm0 = internal constant %class.XMMRegister zeroinitializer, align 4
@UseAVX = external global i32, align 4
@_ZL6xnoreg = internal constant %class.XMMRegister { i32 -1 }, align 4
@all_XMMRegisterImpls = external hidden global [33 x %"class.XMMRegister::XMMRegisterImpl"], align 16

; Function Attrs: mustprogress nounwind uwtable
define linkonce_odr hidden noundef i32 @_Z12checked_castIilET_T0_(i64 noundef %0) #1 comdat {
  %2 = alloca i64, align 8
  %3 = alloca i32, align 4
  store i64 %0, ptr %2, align 8
  %4 = load i64, ptr %2, align 8
  %5 = trunc i64 %4 to i32
  store i32 %5, ptr %3, align 4
  %6 = load i32, ptr %3, align 4
  ret i32 %6
}

; Function Attrs: mustprogress nounwind uwtable
define linkonce_odr hidden noundef i32 @_ZNK11XMMRegister15XMMRegisterImpl12raw_encodingEv(ptr noundef nonnull align 1 dereferenceable(1) %0) #1 comdat align 2 {
  %2 = alloca ptr, align 8
  store ptr %0, ptr %2, align 8
  %3 = load ptr, ptr %2, align 8
  %4 = call noundef ptr @_ZN11XMMRegister15XMMRegisterImpl5firstEv()
  %5 = ptrtoint ptr %3 to i64
  %6 = ptrtoint ptr %4 to i64
  %7 = sub i64 %5, %6
  %8 = call noundef i32 @_Z12checked_castIilET_T0_(i64 noundef %7)
  ret i32 %8
}

; Function Attrs: mustprogress nounwind uwtable
define linkonce_odr hidden noundef ptr @_ZN11XMMRegister15XMMRegisterImpl5firstEv() #1 comdat align 2 {
  ret ptr getelementptr inbounds (%"class.XMMRegister::XMMRegisterImpl", ptr @all_XMMRegisterImpls, i64 1)
}

; Function Attrs: mustprogress nounwind uwtable
define linkonce_odr hidden void @_ZN14AbstractRegSetI11XMMRegisterEC2Em(ptr noundef nonnull align 8 dereferenceable(8) %0, i64 noundef %1) unnamed_addr #1 comdat align 2 {
  %3 = alloca ptr, align 8
  %4 = alloca i64, align 8
  store ptr %0, ptr %3, align 8
  store i64 %1, ptr %4, align 8
  %5 = load ptr, ptr %3, align 8
  %6 = getelementptr inbounds %class.AbstractRegSet.2, ptr %5, i32 0, i32 0
  %7 = load i64, ptr %4, align 8
  store i64 %7, ptr %6, align 8
  ret void
}

; Function Attrs: mustprogress nounwind uwtable
define linkonce_odr hidden noundef i32 @_ZN14AbstractRegSetI11XMMRegisterE8max_sizeEv() #1 comdat align 2 {
  ret i32 64
}

; Function Attrs: mustprogress nounwind uwtable
define linkonce_odr hidden noundef i32 @_ZNK11XMMRegister15XMMRegisterImpl8encodingEv(ptr noundef nonnull align 1 dereferenceable(1) %0) #1 comdat align 2 {
  %2 = alloca ptr, align 8
  store ptr %0, ptr %2, align 8
  %3 = load ptr, ptr %2, align 8
  %4 = call noundef i32 @_ZNK11XMMRegister15XMMRegisterImpl12raw_encodingEv(ptr noundef nonnull align 1 dereferenceable(1) %3)
  ret i32 %4
}

; Function Attrs: mustprogress nounwind uwtable
define linkonce_odr hidden noundef ptr @_ZNK11XMMRegisterptEv(ptr noundef nonnull align 4 dereferenceable(4) %0) #1 comdat align 2 {
  %2 = alloca ptr, align 8
  store ptr %0, ptr %2, align 8
  %3 = load ptr, ptr %2, align 8
  %4 = call noundef ptr @_ZN11XMMRegister15XMMRegisterImpl5firstEv()
  %5 = getelementptr inbounds %class.XMMRegister, ptr %3, i32 0, i32 0
  %6 = load i32, ptr %5, align 4
  %7 = sext i32 %6 to i64
  %8 = getelementptr inbounds %"class.XMMRegister::XMMRegisterImpl", ptr %4, i64 %7
  ret ptr %8
}

; Function Attrs: mustprogress nounwind uwtable
define linkonce_odr hidden void @_ZN11XMMRegisterC2Eib(ptr noundef nonnull align 4 dereferenceable(4) %0, i32 noundef %1, i1 noundef zeroext %2) unnamed_addr #1 comdat align 2 {
  %4 = alloca ptr, align 8
  %5 = alloca i32, align 4
  %6 = alloca i8, align 1
  store ptr %0, ptr %4, align 8
  store i32 %1, ptr %5, align 4
  %7 = zext i1 %2 to i8
  store i8 %7, ptr %6, align 1
  %8 = load ptr, ptr %4, align 8
  %9 = getelementptr inbounds %class.XMMRegister, ptr %8, i32 0, i32 0
  %10 = load i32, ptr %5, align 4
  store i32 %10, ptr %9, align 4
  ret void
}

; Function Attrs: mustprogress nounwind uwtable
define linkonce_odr hidden i64 @_ZN14AbstractRegSetI11XMMRegisterE5rangeES0_S0_(i32 %0, i32 %1) #1 comdat align 2 {
  %3 = alloca %class.AbstractRegSet.2, align 8
  %4 = alloca %class.XMMRegister, align 4
  %5 = alloca %class.XMMRegister, align 4
  %6 = alloca i32, align 4
  %7 = alloca i32, align 4
  %8 = alloca i64, align 8
  %9 = getelementptr inbounds %class.XMMRegister, ptr %4, i32 0, i32 0
  store i32 %0, ptr %9, align 4
  %10 = getelementptr inbounds %class.XMMRegister, ptr %5, i32 0, i32 0
  store i32 %1, ptr %10, align 4
  %11 = call noundef ptr @_ZNK11XMMRegisterptEv(ptr noundef nonnull align 4 dereferenceable(4) %4)
  %12 = call noundef i32 @_ZNK11XMMRegister15XMMRegisterImpl8encodingEv(ptr noundef nonnull align 1 dereferenceable(1) %11)
  store i32 %12, ptr %6, align 4
  %13 = call noundef ptr @_ZNK11XMMRegisterptEv(ptr noundef nonnull align 4 dereferenceable(4) %5)
  %14 = call noundef i32 @_ZNK11XMMRegister15XMMRegisterImpl8encodingEv(ptr noundef nonnull align 1 dereferenceable(1) %13)
  store i32 %14, ptr %7, align 4
  store i64 -1, ptr %8, align 8
  %15 = load i32, ptr %6, align 4
  %16 = load i64, ptr %8, align 8
  %17 = zext i32 %15 to i64
  %18 = shl i64 %16, %17
  store i64 %18, ptr %8, align 8
  %19 = call noundef i32 @_ZN14AbstractRegSetI11XMMRegisterE8max_sizeEv()
  %20 = sub nsw i32 %19, 1
  %21 = load i32, ptr %7, align 4
  %22 = sub nsw i32 %20, %21
  %23 = load i64, ptr %8, align 8
  %24 = zext i32 %22 to i64
  %25 = shl i64 %23, %24
  store i64 %25, ptr %8, align 8
  %26 = call noundef i32 @_ZN14AbstractRegSetI11XMMRegisterE8max_sizeEv()
  %27 = sub nsw i32 %26, 1
  %28 = load i32, ptr %7, align 4
  %29 = sub nsw i32 %27, %28
  %30 = load i64, ptr %8, align 8
  %31 = zext i32 %29 to i64
  %32 = lshr i64 %30, %31
  store i64 %32, ptr %8, align 8
  %33 = load i64, ptr %8, align 8
  call void @_ZN14AbstractRegSetI11XMMRegisterEC2Em(ptr noundef nonnull align 8 dereferenceable(8) %3, i64 noundef %33)
  %34 = getelementptr inbounds %class.AbstractRegSet.2, ptr %3, i32 0, i32 0
  %35 = load i64, ptr %34, align 8
  ret i64 %35
}

; Function Attrs: mustprogress nounwind uwtable
define linkonce_odr hidden i32 @_Z14as_XMMRegisteri(i32 noundef %0) #1 comdat {
  %2 = alloca %class.XMMRegister, align 4
  %3 = alloca i32, align 4
  store i32 %0, ptr %3, align 4
  %4 = load i32, ptr %3, align 4
  %5 = icmp sle i32 0, %4
  br i1 %5, label %6, label %11

6:                                                ; preds = %1
  %7 = load i32, ptr %3, align 4
  %8 = icmp slt i32 %7, 32
  br i1 %8, label %9, label %11

9:                                                ; preds = %6
  %10 = load i32, ptr %3, align 4
  call void @_ZN11XMMRegisterC2Eib(ptr noundef nonnull align 4 dereferenceable(4) %2, i32 noundef %10, i1 noundef zeroext false)
  br label %12

11:                                               ; preds = %6, %1
  call void @llvm.memcpy.p0.p0.i64(ptr align 4 %2, ptr align 4 @_ZL6xnoreg, i64 4, i1 false)
  br label %12

12:                                               ; preds = %11, %9
  %13 = getelementptr inbounds %class.XMMRegister, ptr %2, i32 0, i32 0
  %14 = load i32, ptr %13, align 4
  ret i32 %14
}

; Function Attrs: mustprogress nounwind uwtable
define linkonce_odr hidden noundef i32 @_ZN11XMMRegister23available_xmm_registersEv() #1 comdat align 2 {
  %1 = alloca i32, align 4
  %2 = load i32, ptr @UseAVX, align 4
  %3 = icmp slt i32 %2, 3
  br i1 %3, label %4, label %5

4:                                                ; preds = %0
  store i32 16, ptr %1, align 4
  br label %6

5:                                                ; preds = %0
  store i32 32, ptr %1, align 4
  br label %6

6:                                                ; preds = %5, %4
  %7 = load i32, ptr %1, align 4
  ret i32 %7
}

; Function Attrs: mustprogress nounwind uwtable
define hidden i64 @_ZN14MacroAssembler28call_clobbered_xmm_registersEv() #1 align 2 {
  %1 = alloca %class.AbstractRegSet.2, align 8
  %2 = alloca i32, align 4
  %3 = alloca %class.XMMRegister, align 4
  %4 = alloca %class.XMMRegister, align 4
  %5 = call noundef i32 @_ZN11XMMRegister23available_xmm_registersEv()
  store i32 %5, ptr %2, align 4
  call void @llvm.memcpy.p0.p0.i64(ptr align 4 %3, ptr align 4 @_ZL4xmm0, i64 4, i1 false)
  %6 = load i32, ptr %2, align 4
  %7 = sub nsw i32 %6, 1
  %8 = call i32 @_Z14as_XMMRegisteri(i32 noundef %7)
  %9 = getelementptr inbounds %class.XMMRegister, ptr %4, i32 0, i32 0
  store i32 %8, ptr %9, align 4
  %10 = getelementptr inbounds %class.XMMRegister, ptr %3, i32 0, i32 0
  %11 = load i32, ptr %10, align 4
  %12 = getelementptr inbounds %class.XMMRegister, ptr %4, i32 0, i32 0
  %13 = load i32, ptr %12, align 4
  %14 = call i64 @_ZN14AbstractRegSetI11XMMRegisterE5rangeES0_S0_(i32 %11, i32 %13)
  %15 = getelementptr inbounds %class.AbstractRegSet.2, ptr %1, i32 0, i32 0
  store i64 %14, ptr %15, align 8
  %16 = getelementptr inbounds %class.AbstractRegSet.2, ptr %1, i32 0, i32 0
  %17 = load i64, ptr %16, align 8
  ret i64 %17
}