; Function Attrs: mustprogress nofree norecurse nosync nounwind willreturn memory(read, argmem: none, inaccessiblemem: none) uwtable
define hidden i64 @_ZN14MacroAssembler28call_clobbered_xmm_registersEv() local_unnamed_addr #8 align 2 {
  %1 = load i32, ptr @UseAVX, align 4
  %2 = icmp slt i32 %1, 3
  %3 = select i1 %2, i64 15, i64 31
  %4 = getelementptr inbounds %"class.XMMRegister::XMMRegisterImpl", ptr getelementptr inbounds (i8, ptr @all_XMMRegisterImpls, i64 1), i64 %3
  %5 = ptrtoint ptr %4 to i64
  %6 = trunc i64 %5 to i32
  %7 = xor i32 %6, -1
  %8 = add i32 %7, add (i32 ptrtoint (ptr getelementptr inbounds (i8, ptr @all_XMMRegisterImpls, i64 1) to i32), i32 64)
  %9 = zext nneg i32 %8 to i64
  %10 = lshr i64 -1, %9
  ret i64 %10
}